target datalayout = "e-m:e-p270:32:32-p271:32:32-p272:64:64-i64:64-i128:128-f80:128-n8:16:32:64-S128"
target triple = "x86_64-pc-linux-gnu"

%struct.Variable = type { i32, double, double, double, ptr, i8, %"class.std::vector", %"class.std::vector" }
%"class.std::vector" = type { %"struct.std::_Vector_base" }
%"struct.std::_Vector_base" = type { %"struct.std::_Vector_base<Constraint *, std::allocator<Constraint *>>::_Vector_impl" }
%"struct.std::_Vector_base<Constraint *, std::allocator<Constraint *>>::_Vector_impl" = type { %"struct.std::_Vector_base<Constraint *, std::allocator<Constraint *>>::_Vector_impl_data" }
%"struct.std::_Vector_base<Constraint *, std::allocator<Constraint *>>::_Vector_impl_data" = type { ptr, ptr, ptr }
%class.Block = type { %"class.std::vector.0", double, double, double, i8, i64, %"class.std::vector", %"class.std::vector" }
%"class.std::vector.0" = type { %"struct.std::_Vector_base.1" }
%"struct.std::_Vector_base.1" = type { %"struct.std::_Vector_base<Variable *, std::allocator<Variable *>>::_Vector_impl" }
%"struct.std::_Vector_base<Variable *, std::allocator<Variable *>>::_Vector_impl" = type { %"struct.std::_Vector_base<Variable *, std::allocator<Variable *>>::_Vector_impl_data" }
%"struct.std::_Vector_base<Variable *, std::allocator<Variable *>>::_Vector_impl_data" = type { ptr, ptr, ptr }
%"class.__gnu_cxx::__normal_iterator" = type { ptr }

; Function Attrs: mustprogress nounwind uwtable
define linkonce_odr noundef nonnull align 8 dereferenceable(8) ptr @_ZNK9__gnu_cxx17__normal_iteratorIPP8VariableSt6vectorIS2_SaIS2_EEE4baseEv(ptr noundef nonnull align 8 dereferenceable(8) %0) #6 comdat align 2 {
  %2 = alloca ptr, align 8
  store ptr %0, ptr %2, align 8, !tbaa !46
  %3 = load ptr, ptr %2, align 8
  %4 = getelementptr inbounds nuw %"class.__gnu_cxx::__normal_iterator", ptr %3, i32 0, i32 0
  ret ptr %4
}

; Function Attrs: mustprogress nounwind uwtable
define linkonce_odr void @_ZN9__gnu_cxx17__normal_iteratorIPP8VariableSt6vectorIS2_SaIS2_EEEC2ERKS3_(ptr noundef nonnull align 8 dereferenceable(8) %0, ptr noundef nonnull align 8 dereferenceable(8) %1) unnamed_addr #6 comdat align 2 {
  %3 = alloca ptr, align 8
  %4 = alloca ptr, align 8
  store ptr %0, ptr %3, align 8, !tbaa !46
  store ptr %1, ptr %4, align 8, !tbaa !138
  %5 = load ptr, ptr %3, align 8
  %6 = getelementptr inbounds nuw %"class.__gnu_cxx::__normal_iterator", ptr %5, i32 0, i32 0
  %7 = load ptr, ptr %4, align 8, !tbaa !138
  %8 = load ptr, ptr %7, align 8, !tbaa !35
  store ptr %8, ptr %6, align 8, !tbaa !48
  ret void
}

; Function Attrs: mustprogress nounwind uwtable
define linkonce_odr noundef nonnull align 8 dereferenceable(8) ptr @_ZN9__gnu_cxx17__normal_iteratorIPP8VariableSt6vectorIS2_SaIS2_EEEppEv(ptr noundef nonnull align 8 dereferenceable(8) %0) #6 comdat align 2 {
  %2 = alloca ptr, align 8
  store ptr %0, ptr %2, align 8, !tbaa !46
  %3 = load ptr, ptr %2, align 8
  %4 = getelementptr inbounds nuw %"class.__gnu_cxx::__normal_iterator", ptr %3, i32 0, i32 0
  %5 = load ptr, ptr %4, align 8, !tbaa !48
  %6 = getelementptr inbounds nuw ptr, ptr %5, i32 1
  store ptr %6, ptr %4, align 8, !tbaa !48
  ret ptr %3
}

; Function Attrs: mustprogress nounwind uwtable
define linkonce_odr noundef double @_ZNK8Variable8positionEv(ptr noundef nonnull align 8 dereferenceable(96) %0) #6 comdat align 2 {
  %2 = alloca ptr, align 8
  store ptr %0, ptr %2, align 8, !tbaa !8
  %3 = load ptr, ptr %2, align 8
  %4 = getelementptr inbounds nuw %struct.Variable, ptr %3, i32 0, i32 4
  %5 = load ptr, ptr %4, align 8, !tbaa !10
  %6 = getelementptr inbounds nuw %class.Block, ptr %5, i32 0, i32 1
  %7 = load double, ptr %6, align 8, !tbaa !32
  %8 = getelementptr inbounds nuw %struct.Variable, ptr %3, i32 0, i32 3
  %9 = load double, ptr %8, align 8, !tbaa !30
  %10 = fadd double %7, %9
  ret double %10
}

; Function Attrs: mustprogress nounwind uwtable
define linkonce_odr noundef nonnull align 8 dereferenceable(8) ptr @_ZNK9__gnu_cxx17__normal_iteratorIPP8VariableSt6vectorIS2_SaIS2_EEEdeEv(ptr noundef nonnull align 8 dereferenceable(8) %0) #6 comdat align 2 {
  %2 = alloca ptr, align 8
  store ptr %0, ptr %2, align 8, !tbaa !46
  %3 = load ptr, ptr %2, align 8
  %4 = getelementptr inbounds nuw %"class.__gnu_cxx::__normal_iterator", ptr %3, i32 0, i32 0
  %5 = load ptr, ptr %4, align 8, !tbaa !48
  ret ptr %5
}

; Function Attrs: inlinehint mustprogress nounwind uwtable
define linkonce_odr noundef zeroext i1 @_ZN9__gnu_cxxneIPP8VariableSt6vectorIS2_SaIS2_EEEEbRKNS_17__normal_iteratorIT_T0_EESC_(ptr noundef nonnull align 8 dereferenceable(8) %0, ptr noundef nonnull align 8 dereferenceable(8) %1) #8 comdat {
  %3 = alloca ptr, align 8
  %4 = alloca ptr, align 8
  store ptr %0, ptr %3, align 8, !tbaa !46
  store ptr %1, ptr %4, align 8, !tbaa !46
  %5 = load ptr, ptr %3, align 8, !tbaa !46
  %6 = call noundef nonnull align 8 dereferenceable(8) ptr @_ZNK9__gnu_cxx17__normal_iteratorIPP8VariableSt6vectorIS2_SaIS2_EEE4baseEv(ptr noundef nonnull align 8 dereferenceable(8) %5) #3
  %7 = load ptr, ptr %6, align 8, !tbaa !35
  %8 = load ptr, ptr %4, align 8, !tbaa !46
  %9 = call noundef nonnull align 8 dereferenceable(8) ptr @_ZNK9__gnu_cxx17__normal_iteratorIPP8VariableSt6vectorIS2_SaIS2_EEE4baseEv(ptr noundef nonnull align 8 dereferenceable(8) %8) #3
  %10 = load ptr, ptr %9, align 8, !tbaa !35
  %11 = icmp ne ptr %7, %10
  ret i1 %11
}

; Function Attrs: mustprogress nounwind uwtable
define linkonce_odr ptr @_ZNSt6vectorIP8VariableSaIS1_EE3endEv(ptr noundef nonnull align 8 dereferenceable(24) %0) #6 comdat align 2 {
  %2 = alloca %"class.__gnu_cxx::__normal_iterator", align 8
  %3 = alloca ptr, align 8
  store ptr %0, ptr %3, align 8, !tbaa !33
  %4 = load ptr, ptr %3, align 8
  %5 = getelementptr inbounds nuw %"struct.std::_Vector_base.1", ptr %4, i32 0, i32 0
  %6 = getelementptr inbounds nuw %"struct.std::_Vector_base<Variable *, std::allocator<Variable *>>::_Vector_impl_data", ptr %5, i32 0, i32 1
  call void @_ZN9__gnu_cxx17__normal_iteratorIPP8VariableSt6vectorIS2_SaIS2_EEEC2ERKS3_(ptr noundef nonnull align 8 dereferenceable(8) %2, ptr noundef nonnull align 8 dereferenceable(8) %6) #3
  %7 = getelementptr inbounds nuw %"class.__gnu_cxx::__normal_iterator", ptr %2, i32 0, i32 0
  %8 = load ptr, ptr %7, align 8
  ret ptr %8
}

; Function Attrs: mustprogress nounwind uwtable
define linkonce_odr ptr @_ZNSt6vectorIP8VariableSaIS1_EE5beginEv(ptr noundef nonnull align 8 dereferenceable(24) %0) #6 comdat align 2 {
  %2 = alloca %"class.__gnu_cxx::__normal_iterator", align 8
  %3 = alloca ptr, align 8
  store ptr %0, ptr %3, align 8, !tbaa !33
  %4 = load ptr, ptr %3, align 8
  %5 = getelementptr inbounds nuw %"struct.std::_Vector_base.1", ptr %4, i32 0, i32 0
  %6 = getelementptr inbounds nuw %"struct.std::_Vector_base<Variable *, std::allocator<Variable *>>::_Vector_impl_data", ptr %5, i32 0, i32 0
  call void @_ZN9__gnu_cxx17__normal_iteratorIPP8VariableSt6vectorIS2_SaIS2_EEEC2ERKS3_(ptr noundef nonnull align 8 dereferenceable(8) %2, ptr noundef nonnull align 8 dereferenceable(8) %6) #3
  %7 = getelementptr inbounds nuw %"class.__gnu_cxx::__normal_iterator", ptr %2, i32 0, i32 0
  %8 = load ptr, ptr %7, align 8
  ret ptr %8
}

; Function Attrs: mustprogress uwtable
define noundef double @_ZN5Block4costEv(ptr noundef nonnull align 8 dereferenceable(112) %0) #4 align 2 {
  %2 = alloca ptr, align 8
  %3 = alloca double, align 8
  %4 = alloca ptr, align 8
  %5 = alloca %"class.__gnu_cxx::__normal_iterator", align 8
  %6 = alloca %"class.__gnu_cxx::__normal_iterator", align 8
  %7 = alloca ptr, align 8
  %8 = alloca double, align 8
  store ptr %0, ptr %2, align 8, !tbaa !3
  %9 = load ptr, ptr %2, align 8
  call void @llvm.lifetime.start.p0(i64 8, ptr %3) #3
  store double 0.000000e+00, ptr %3, align 8, !tbaa !45
  call void @llvm.lifetime.start.p0(i64 8, ptr %4) #3
  %10 = getelementptr inbounds nuw %class.Block, ptr %9, i32 0, i32 0
  store ptr %10, ptr %4, align 8, !tbaa !33
  call void @llvm.lifetime.start.p0(i64 8, ptr %5) #3
  %11 = load ptr, ptr %4, align 8, !tbaa !33
  %12 = call ptr @_ZNSt6vectorIP8VariableSaIS1_EE5beginEv(ptr noundef nonnull align 8 dereferenceable(24) %11) #3
  %13 = getelementptr inbounds nuw %"class.__gnu_cxx::__normal_iterator", ptr %5, i32 0, i32 0
  store ptr %12, ptr %13, align 8
  call void @llvm.lifetime.start.p0(i64 8, ptr %6) #3
  %14 = load ptr, ptr %4, align 8, !tbaa !33
  %15 = call ptr @_ZNSt6vectorIP8VariableSaIS1_EE3endEv(ptr noundef nonnull align 8 dereferenceable(24) %14) #3
  %16 = getelementptr inbounds nuw %"class.__gnu_cxx::__normal_iterator", ptr %6, i32 0, i32 0
  store ptr %15, ptr %16, align 8
  br label %17

17:                                               ; preds = %37, %1
  %18 = call noundef zeroext i1 @_ZN9__gnu_cxxneIPP8VariableSt6vectorIS2_SaIS2_EEEEbRKNS_17__normal_iteratorIT_T0_EESC_(ptr noundef nonnull align 8 dereferenceable(8) %5, ptr noundef nonnull align 8 dereferenceable(8) %6) #3
  br i1 %18, label %20, label %19

19:                                               ; preds = %17
  call void @llvm.lifetime.end.p0(i64 8, ptr %6) #3
  call void @llvm.lifetime.end.p0(i64 8, ptr %5) #3
  call void @llvm.lifetime.end.p0(i64 8, ptr %4) #3
  br label %39

20:                                               ; preds = %17
  call void @llvm.lifetime.start.p0(i64 8, ptr %7) #3
  %21 = call noundef nonnull align 8 dereferenceable(8) ptr @_ZNK9__gnu_cxx17__normal_iteratorIPP8VariableSt6vectorIS2_SaIS2_EEEdeEv(ptr noundef nonnull align 8 dereferenceable(8) %5) #3
  %22 = load ptr, ptr %21, align 8, !tbaa !8
  store ptr %22, ptr %7, align 8, !tbaa !8
  call void @llvm.lifetime.start.p0(i64 8, ptr %8) #3
  %23 = load ptr, ptr %7, align 8, !tbaa !8
  %24 = call noundef double @_ZNK8Variable8positionEv(ptr noundef nonnull align 8 dereferenceable(96) %23)
  %25 = load ptr, ptr %7, align 8, !tbaa !8
  %26 = getelementptr inbounds nuw %struct.Variable, ptr %25, i32 0, i32 1
  %27 = load double, ptr %26, align 8, !tbaa !29
  %28 = fsub double %24, %27
  store double %28, ptr %8, align 8, !tbaa !45
  %29 = load ptr, ptr %7, align 8, !tbaa !8
  %30 = getelementptr inbounds nuw %struct.Variable, ptr %29, i32 0, i32 2
  %31 = load double, ptr %30, align 8, !tbaa !20
  %32 = load double, ptr %8, align 8, !tbaa !45
  %33 = fmul double %31, %32
  %34 = load double, ptr %8, align 8, !tbaa !45
  %35 = load double, ptr %3, align 8, !tbaa !45
  %36 = call double @llvm.fmuladd.f64(double %33, double %34, double %35)
  store double %36, ptr %3, align 8, !tbaa !45
  call void @llvm.lifetime.end.p0(i64 8, ptr %8) #3
  call void @llvm.lifetime.end.p0(i64 8, ptr %7) #3
  br label %37

37:                                               ; preds = %20
  %38 = call noundef nonnull align 8 dereferenceable(8) ptr @_ZN9__gnu_cxx17__normal_iteratorIPP8VariableSt6vectorIS2_SaIS2_EEEppEv(ptr noundef nonnull align 8 dereferenceable(8) %5) #3
  br label %17

39:                                               ; preds = %19
  %40 = load double, ptr %3, align 8, !tbaa !45
  call void @llvm.lifetime.end.p0(i64 8, ptr %3) #3
  ret double %40
}