; Function Attrs: mustprogress nofree norecurse nosync nounwind willreturn memory(read, inaccessiblemem: none) uwtable
define noundef double @_ZN5Block4costEv(ptr noundef nonnull readonly align 8 captures(none) dereferenceable(112) %0) local_unnamed_addr #5 align 2 {
  %2 = load ptr, ptr %0, align 8, !tbaa !37
  %3 = getelementptr inbounds nuw i8, ptr %0, i64 8
  %4 = load ptr, ptr %3, align 8, !tbaa !37
  %.not13 = icmp eq ptr %2, %4
  br i1 %.not13, label %._crit_edge, label %.lr.ph

._crit_edge:                                      ; preds = %.lr.ph, %1
  %.0.lcssa = phi double [ 0.000000e+00, %1 ], [ %19, %.lr.ph ]
  ret double %.0.lcssa

.lr.ph:                                           ; preds = %1, %.lr.ph
  %.015 = phi double [ %19, %.lr.ph ], [ 0.000000e+00, %1 ]
  %.sroa.010.014 = phi ptr [ %20, %.lr.ph ], [ %2, %1 ]
  %5 = load ptr, ptr %.sroa.010.014, align 8, !tbaa !21
  %6 = getelementptr inbounds nuw i8, ptr %5, i64 32
  %7 = load ptr, ptr %6, align 8, !tbaa !3
  %8 = getelementptr inbounds nuw i8, ptr %7, i64 24
  %9 = load double, ptr %8, align 8, !tbaa !34
  %10 = getelementptr inbounds nuw i8, ptr %5, i64 24
  %11 = load double, ptr %10, align 8, !tbaa !32
  %12 = fadd double %9, %11
  %13 = getelementptr inbounds nuw i8, ptr %5, i64 8
  %14 = load double, ptr %13, align 8, !tbaa !31
  %15 = fsub double %12, %14
  %16 = getelementptr inbounds nuw i8, ptr %5, i64 16
  %17 = load double, ptr %16, align 8, !tbaa !24
  %18 = fmul double %17, %15
  %19 = tail call double @llvm.fmuladd.f64(double %18, double %15, double %.015)
  %20 = getelementptr inbounds nuw i8, ptr %.sroa.010.014, i64 8
  %.not = icmp eq ptr %20, %4
  br i1 %.not, label %._crit_edge, label %.lr.ph
}